target datalayout = "e-m:e-p270:32:32-p271:32:32-p272:64:64-i64:64-i128:128-f80:128-n8:16:32:64-S128"
target triple = "x86_64-pc-linux-gnu"

%struct.redisContextFuncs = type { ptr, ptr, ptr, ptr, ptr, ptr }
%struct.hisdshdr8 = type { i8, i8, i8, [0 x i8] }
%struct.hisdshdr16 = type <{ i16, i16, i8, [0 x i8] }>
%struct.hisdshdr32 = type <{ i32, i32, i8, [0 x i8] }>
%struct.hisdshdr64 = type <{ i64, i64, i8, [0 x i8] }>
%struct.redisContext = type { ptr, i32, [128 x i8], i32, i32, ptr, ptr, i32, ptr, ptr, %struct.anon, %struct.anon.0, ptr, i64, ptr, ptr, ptr, ptr }
%struct.anon = type { ptr, ptr, i32 }
%struct.anon.0 = type { ptr }

@.str.7 = private unnamed_addr constant [14 x i8] c"Out of memory\00", align 1

; Function Attrs: nounwind uwtable
define void @__redisSetError(ptr noundef %0, i32 noundef %1, ptr noundef %2) #0 {
  %4 = alloca ptr, align 8
  %5 = alloca i32, align 4
  %6 = alloca ptr, align 8
  %7 = alloca i64, align 8
  store ptr %0, ptr %4, align 8, !tbaa !40
  store i32 %1, ptr %5, align 4, !tbaa !29
  store ptr %2, ptr %6, align 8, !tbaa !26
  call void @llvm.lifetime.start.p0(i64 8, ptr %7) #10
  %8 = load i32, ptr %5, align 4, !tbaa !29
  %9 = load ptr, ptr %4, align 8, !tbaa !40
  %10 = getelementptr inbounds nuw %struct.redisContext, ptr %9, i32 0, i32 1
  store i32 %8, ptr %10, align 8, !tbaa !42
  %11 = load ptr, ptr %6, align 8, !tbaa !26
  %12 = icmp ne ptr %11, null
  br i1 %12, label %13, label %32

13:                                               ; preds = %3
  %14 = load ptr, ptr %6, align 8, !tbaa !26
  %15 = call i64 @strlen(ptr noundef %14) #11
  store i64 %15, ptr %7, align 8, !tbaa !19
  %16 = load i64, ptr %7, align 8, !tbaa !19
  %17 = icmp ult i64 %16, 127
  br i1 %17, label %18, label %20

18:                                               ; preds = %13
  %19 = load i64, ptr %7, align 8, !tbaa !19
  br label %21

20:                                               ; preds = %13
  br label %21

21:                                               ; preds = %20, %18
  %22 = phi i64 [ %19, %18 ], [ 127, %20 ]
  store i64 %22, ptr %7, align 8, !tbaa !19
  %23 = load ptr, ptr %4, align 8, !tbaa !40
  %24 = getelementptr inbounds nuw %struct.redisContext, ptr %23, i32 0, i32 2
  %25 = getelementptr inbounds [128 x i8], ptr %24, i64 0, i64 0
  %26 = load ptr, ptr %6, align 8, !tbaa !26
  %27 = load i64, ptr %7, align 8, !tbaa !19
  call void @llvm.memcpy.p0.p0.i64(ptr align 4 %25, ptr align 1 %26, i64 %27, i1 false)
  %28 = load ptr, ptr %4, align 8, !tbaa !40
  %29 = getelementptr inbounds nuw %struct.redisContext, ptr %28, i32 0, i32 2
  %30 = load i64, ptr %7, align 8, !tbaa !19
  %31 = getelementptr inbounds nuw [128 x i8], ptr %29, i64 0, i64 %30
  store i8 0, ptr %31, align 1, !tbaa !30
  br label %39

32:                                               ; preds = %3
  %33 = call ptr @__errno_location() #12
  %34 = load i32, ptr %33, align 4, !tbaa !29
  %35 = load ptr, ptr %4, align 8, !tbaa !40
  %36 = getelementptr inbounds nuw %struct.redisContext, ptr %35, i32 0, i32 2
  %37 = getelementptr inbounds [128 x i8], ptr %36, i64 0, i64 0
  %38 = call i32 @__xpg_strerror_r(i32 noundef %34, ptr noundef %37, i64 noundef 128) #10
  br label %39

39:                                               ; preds = %32, %21
  call void @llvm.lifetime.end.p0(i64 8, ptr %7) #10
  ret void
}

; Function Attrs: inlinehint nounwind uwtable
define internal i64 @hi_sdslen(ptr noundef %0) #2 {
  %2 = alloca i64, align 8
  %3 = alloca ptr, align 8
  %4 = alloca i8, align 1
  %5 = alloca i32, align 4
  store ptr %0, ptr %3, align 8, !tbaa !26
  call void @llvm.lifetime.start.p0(i64 1, ptr %4) #10
  %6 = load ptr, ptr %3, align 8, !tbaa !26
  %7 = getelementptr inbounds i8, ptr %6, i64 -1
  %8 = load i8, ptr %7, align 1, !tbaa !30
  store i8 %8, ptr %4, align 1, !tbaa !30
  %9 = load i8, ptr %4, align 1, !tbaa !30
  %10 = zext i8 %9 to i32
  %11 = and i32 %10, 7
  switch i32 %11, label %40 [
    i32 0, label %12
    i32 1, label %17
    i32 2, label %23
    i32 3, label %29
    i32 4, label %35
  ]

12:                                               ; preds = %1
  %13 = load i8, ptr %4, align 1, !tbaa !30
  %14 = zext i8 %13 to i32
  %15 = ashr i32 %14, 3
  %16 = sext i32 %15 to i64
  store i64 %16, ptr %2, align 8
  store i32 1, ptr %5, align 4
  br label %41

17:                                               ; preds = %1
  %18 = load ptr, ptr %3, align 8, !tbaa !26
  %19 = getelementptr inbounds i8, ptr %18, i64 -3
  %20 = getelementptr inbounds nuw %struct.hisdshdr8, ptr %19, i32 0, i32 0
  %21 = load i8, ptr %20, align 1, !tbaa !30
  %22 = zext i8 %21 to i64
  store i64 %22, ptr %2, align 8
  store i32 1, ptr %5, align 4
  br label %41

23:                                               ; preds = %1
  %24 = load ptr, ptr %3, align 8, !tbaa !26
  %25 = getelementptr inbounds i8, ptr %24, i64 -5
  %26 = getelementptr inbounds nuw %struct.hisdshdr16, ptr %25, i32 0, i32 0
  %27 = load i16, ptr %26, align 1, !tbaa !33
  %28 = zext i16 %27 to i64
  store i64 %28, ptr %2, align 8
  store i32 1, ptr %5, align 4
  br label %41

29:                                               ; preds = %1
  %30 = load ptr, ptr %3, align 8, !tbaa !26
  %31 = getelementptr inbounds i8, ptr %30, i64 -9
  %32 = getelementptr inbounds nuw %struct.hisdshdr32, ptr %31, i32 0, i32 0
  %33 = load i32, ptr %32, align 1, !tbaa !29
  %34 = zext i32 %33 to i64
  store i64 %34, ptr %2, align 8
  store i32 1, ptr %5, align 4
  br label %41

35:                                               ; preds = %1
  %36 = load ptr, ptr %3, align 8, !tbaa !26
  %37 = getelementptr inbounds i8, ptr %36, i64 -17
  %38 = getelementptr inbounds nuw %struct.hisdshdr64, ptr %37, i32 0, i32 0
  %39 = load i64, ptr %38, align 1, !tbaa !19
  store i64 %39, ptr %2, align 8
  store i32 1, ptr %5, align 4
  br label %41

40:                                               ; preds = %1
  store i64 0, ptr %2, align 8
  store i32 1, ptr %5, align 4
  br label %41

41:                                               ; preds = %40, %35, %29, %23, %17, %12
  call void @llvm.lifetime.end.p0(i64 1, ptr %4) #10
  %42 = load i64, ptr %2, align 8
  ret i64 %42
}

; Function Attrs: nounwind uwtable
define i32 @redisBufferWrite(ptr noundef %0, ptr noundef %1) #0 {
  %3 = alloca i32, align 4
  %4 = alloca ptr, align 8
  %5 = alloca ptr, align 8
  %6 = alloca i64, align 8
  %7 = alloca i32, align 4
  store ptr %0, ptr %4, align 8, !tbaa !40
  store ptr %1, ptr %5, align 8, !tbaa !83
  %8 = load ptr, ptr %4, align 8, !tbaa !40
  %9 = getelementptr inbounds nuw %struct.redisContext, ptr %8, i32 0, i32 1
  %10 = load i32, ptr %9, align 8, !tbaa !42
  %11 = icmp ne i32 %10, 0
  br i1 %11, label %12, label %13

12:                                               ; preds = %2
  store i32 -1, ptr %3, align 4
  br label %82

13:                                               ; preds = %2
  %14 = load ptr, ptr %4, align 8, !tbaa !40
  %15 = getelementptr inbounds nuw %struct.redisContext, ptr %14, i32 0, i32 5
  %16 = load ptr, ptr %15, align 8, !tbaa !53
  %17 = call i64 @hi_sdslen(ptr noundef %16)
  %18 = icmp ugt i64 %17, 0
  br i1 %18, label %19, label %68

19:                                               ; preds = %13
  call void @llvm.lifetime.start.p0(i64 8, ptr %6) #10
  %20 = load ptr, ptr %4, align 8, !tbaa !40
  %21 = getelementptr inbounds nuw %struct.redisContext, ptr %20, i32 0, i32 0
  %22 = load ptr, ptr %21, align 8, !tbaa !50
  %23 = getelementptr inbounds nuw %struct.redisContextFuncs, ptr %22, i32 0, i32 5
  %24 = load ptr, ptr %23, align 8, !tbaa !85
  %25 = load ptr, ptr %4, align 8, !tbaa !40
  %26 = call i64 %24(ptr noundef %25)
  store i64 %26, ptr %6, align 8, !tbaa !19
  %27 = load i64, ptr %6, align 8, !tbaa !19
  %28 = icmp slt i64 %27, 0
  br i1 %28, label %29, label %30

29:                                               ; preds = %19
  store i32 -1, ptr %3, align 4
  store i32 1, ptr %7, align 4
  br label %65

30:                                               ; preds = %19
  %31 = load i64, ptr %6, align 8, !tbaa !19
  %32 = icmp sgt i64 %31, 0
  br i1 %32, label %33, label %63

33:                                               ; preds = %30
  %34 = load i64, ptr %6, align 8, !tbaa !19
  %35 = load ptr, ptr %4, align 8, !tbaa !40
  %36 = getelementptr inbounds nuw %struct.redisContext, ptr %35, i32 0, i32 5
  %37 = load ptr, ptr %36, align 8, !tbaa !53
  %38 = call i64 @hi_sdslen(ptr noundef %37)
  %39 = icmp eq i64 %34, %38
  br i1 %39, label %40, label %53

40:                                               ; preds = %33
  %41 = load ptr, ptr %4, align 8, !tbaa !40
  %42 = getelementptr inbounds nuw %struct.redisContext, ptr %41, i32 0, i32 5
  %43 = load ptr, ptr %42, align 8, !tbaa !53
  call void @hi_sdsfree(ptr noundef %43)
  %44 = call ptr @hi_sdsempty()
  %45 = load ptr, ptr %4, align 8, !tbaa !40
  %46 = getelementptr inbounds nuw %struct.redisContext, ptr %45, i32 0, i32 5
  store ptr %44, ptr %46, align 8, !tbaa !53
  %47 = load ptr, ptr %4, align 8, !tbaa !40
  %48 = getelementptr inbounds nuw %struct.redisContext, ptr %47, i32 0, i32 5
  %49 = load ptr, ptr %48, align 8, !tbaa !53
  %50 = icmp eq ptr %49, null
  br i1 %50, label %51, label %52

51:                                               ; preds = %40
  store i32 2, ptr %7, align 4
  br label %65

52:                                               ; preds = %40
  br label %62

53:                                               ; preds = %33
  %54 = load ptr, ptr %4, align 8, !tbaa !40
  %55 = getelementptr inbounds nuw %struct.redisContext, ptr %54, i32 0, i32 5
  %56 = load ptr, ptr %55, align 8, !tbaa !53
  %57 = load i64, ptr %6, align 8, !tbaa !19
  %58 = call i32 @hi_sdsrange(ptr noundef %56, i64 noundef %57, i64 noundef -1)
  %59 = icmp slt i32 %58, 0
  br i1 %59, label %60, label %61

60:                                               ; preds = %53
  store i32 2, ptr %7, align 4
  br label %65

61:                                               ; preds = %53
  br label %62

62:                                               ; preds = %61, %52
  br label %63

63:                                               ; preds = %62, %30
  br label %64

64:                                               ; preds = %63
  store i32 0, ptr %7, align 4
  br label %65

65:                                               ; preds = %60, %51, %64, %29
  call void @llvm.lifetime.end.p0(i64 8, ptr %6) #10
  %66 = load i32, ptr %7, align 4
  switch i32 %66, label %84 [
    i32 0, label %67
    i32 1, label %82
    i32 2, label %80
  ]

67:                                               ; preds = %65
  br label %68

68:                                               ; preds = %67, %13
  %69 = load ptr, ptr %5, align 8, !tbaa !83
  %70 = icmp ne ptr %69, null
  br i1 %70, label %71, label %79

71:                                               ; preds = %68
  %72 = load ptr, ptr %4, align 8, !tbaa !40
  %73 = getelementptr inbounds nuw %struct.redisContext, ptr %72, i32 0, i32 5
  %74 = load ptr, ptr %73, align 8, !tbaa !53
  %75 = call i64 @hi_sdslen(ptr noundef %74)
  %76 = icmp eq i64 %75, 0
  %77 = zext i1 %76 to i32
  %78 = load ptr, ptr %5, align 8, !tbaa !83
  store i32 %77, ptr %78, align 4, !tbaa !29
  br label %79

79:                                               ; preds = %71, %68
  store i32 0, ptr %3, align 4
  br label %82

80:                                               ; preds = %65
  %81 = load ptr, ptr %4, align 8, !tbaa !40
  call void @__redisSetError(ptr noundef %81, i32 noundef 5, ptr noundef @.str.7)
  store i32 -1, ptr %3, align 4
  br label %82

82:                                               ; preds = %80, %79, %65, %12
  %83 = load i32, ptr %3, align 4
  ret i32 %83

84:                                               ; preds = %65
  unreachable
}