; Function Attrs: nounwind uwtable
define range(i32 -1, 1) i32 @redisBufferWrite(ptr noundef %0, ptr noundef writeonly captures(address_is_null) %1) local_unnamed_addr #0 {
  %3 = getelementptr inbounds nuw i8, ptr %0, i64 8
  %4 = load i32, ptr %3, align 8, !tbaa !32
  %.not = icmp eq i32 %4, 0
  br i1 %.not, label %5, label %96

5:                                                ; preds = %2
  %6 = getelementptr inbounds nuw i8, ptr %0, i64 152
  %7 = load ptr, ptr %6, align 8, !tbaa !43
  %8 = getelementptr inbounds i8, ptr %7, i64 -1
  %9 = load i8, ptr %8, align 1, !tbaa !22
  %10 = zext i8 %9 to i32
  %11 = and i32 %10, 7
  switch i32 %11, label %hi_sdslen.exit.thread [
    i32 0, label %12
    i32 1, label %15
    i32 2, label %19
    i32 3, label %23
    i32 4, label %27
  ]

12:                                               ; preds = %5
  %13 = lshr i32 %10, 3
  %14 = zext nneg i32 %13 to i64
  br label %hi_sdslen.exit

15:                                               ; preds = %5
  %16 = getelementptr inbounds i8, ptr %7, i64 -3
  %17 = load i8, ptr %16, align 1, !tbaa !22
  %18 = zext i8 %17 to i64
  br label %hi_sdslen.exit

19:                                               ; preds = %5
  %20 = getelementptr inbounds i8, ptr %7, i64 -5
  %21 = load i16, ptr %20, align 1, !tbaa !25
  %22 = zext i16 %21 to i64
  br label %hi_sdslen.exit

23:                                               ; preds = %5
  %24 = getelementptr inbounds i8, ptr %7, i64 -9
  %25 = load i32, ptr %24, align 1, !tbaa !27
  %26 = zext i32 %25 to i64
  br label %hi_sdslen.exit

27:                                               ; preds = %5
  %28 = getelementptr inbounds i8, ptr %7, i64 -17
  %29 = load i64, ptr %28, align 1, !tbaa !28
  br label %hi_sdslen.exit

hi_sdslen.exit:                                   ; preds = %12, %15, %19, %23, %27
  %.0.i = phi i64 [ %29, %27 ], [ %26, %23 ], [ %22, %19 ], [ %18, %15 ], [ %14, %12 ]
  %.not21 = icmp eq i64 %.0.i, 0
  br i1 %.not21, label %hi_sdslen.exit.thread, label %30

30:                                               ; preds = %hi_sdslen.exit
  %31 = load ptr, ptr %0, align 8, !tbaa !40
  %32 = getelementptr inbounds nuw i8, ptr %31, i64 40
  %33 = load ptr, ptr %32, align 8, !tbaa !74
  %34 = tail call i64 %33(ptr noundef nonnull %0) #13
  %35 = icmp slt i64 %34, 0
  br i1 %35, label %96, label %36

36:                                               ; preds = %30
  %.not22 = icmp eq i64 %34, 0
  br i1 %.not22, label %hi_sdslen.exit.thread, label %37

37:                                               ; preds = %36
  %38 = load ptr, ptr %6, align 8, !tbaa !43
  %39 = getelementptr inbounds i8, ptr %38, i64 -1
  %40 = load i8, ptr %39, align 1, !tbaa !22
  %41 = zext i8 %40 to i32
  %42 = and i32 %41, 7
  switch i32 %42, label %hi_sdslen.exit25.thread [
    i32 0, label %43
    i32 1, label %46
    i32 2, label %50
    i32 3, label %54
    i32 4, label %58
  ]

43:                                               ; preds = %37
  %44 = lshr i32 %41, 3
  %45 = zext nneg i32 %44 to i64
  br label %hi_sdslen.exit25

46:                                               ; preds = %37
  %47 = getelementptr inbounds i8, ptr %38, i64 -3
  %48 = load i8, ptr %47, align 1, !tbaa !22
  %49 = zext i8 %48 to i64
  br label %hi_sdslen.exit25

50:                                               ; preds = %37
  %51 = getelementptr inbounds i8, ptr %38, i64 -5
  %52 = load i16, ptr %51, align 1, !tbaa !25
  %53 = zext i16 %52 to i64
  br label %hi_sdslen.exit25

54:                                               ; preds = %37
  %55 = getelementptr inbounds i8, ptr %38, i64 -9
  %56 = load i32, ptr %55, align 1, !tbaa !27
  %57 = zext i32 %56 to i64
  br label %hi_sdslen.exit25

58:                                               ; preds = %37
  %59 = getelementptr inbounds i8, ptr %38, i64 -17
  %60 = load i64, ptr %59, align 1, !tbaa !28
  br label %hi_sdslen.exit25

hi_sdslen.exit25:                                 ; preds = %43, %46, %50, %54, %58
  %.0.i24 = phi i64 [ %60, %58 ], [ %57, %54 ], [ %53, %50 ], [ %49, %46 ], [ %45, %43 ]
  %61 = icmp eq i64 %34, %.0.i24
  br i1 %61, label %62, label %hi_sdslen.exit25.thread

62:                                               ; preds = %hi_sdslen.exit25
  tail call void @hi_sdsfree(ptr noundef nonnull %38) #13
  %63 = tail call ptr @hi_sdsempty() #13
  store ptr %63, ptr %6, align 8, !tbaa !43
  %64 = icmp eq ptr %63, null
  br i1 %64, label %93, label %hi_sdslen.exit.thread

hi_sdslen.exit25.thread:                          ; preds = %37, %hi_sdslen.exit25
  %65 = tail call i32 @hi_sdsrange(ptr noundef nonnull %38, i64 noundef %34, i64 noundef -1) #13
  %66 = icmp slt i32 %65, 0
  br i1 %66, label %93, label %hi_sdslen.exit.thread

hi_sdslen.exit.thread:                            ; preds = %36, %hi_sdslen.exit25.thread, %62, %5, %hi_sdslen.exit
  %.not23 = icmp eq ptr %1, null
  br i1 %.not23, label %96, label %67

67:                                               ; preds = %hi_sdslen.exit.thread
  %68 = load ptr, ptr %6, align 8, !tbaa !43
  %69 = getelementptr inbounds i8, ptr %68, i64 -1
  %70 = load i8, ptr %69, align 1, !tbaa !22
  %71 = zext i8 %70 to i32
  %72 = and i32 %71, 7
  switch i32 %72, label %hi_sdslen.exit27 [
    i32 0, label %73
    i32 1, label %76
    i32 2, label %80
    i32 3, label %84
    i32 4, label %88
  ]

73:                                               ; preds = %67
  %74 = lshr i32 %71, 3
  %75 = zext nneg i32 %74 to i64
  br label %hi_sdslen.exit27

76:                                               ; preds = %67
  %77 = getelementptr inbounds i8, ptr %68, i64 -3
  %78 = load i8, ptr %77, align 1, !tbaa !22
  %79 = zext i8 %78 to i64
  br label %hi_sdslen.exit27

80:                                               ; preds = %67
  %81 = getelementptr inbounds i8, ptr %68, i64 -5
  %82 = load i16, ptr %81, align 1, !tbaa !25
  %83 = zext i16 %82 to i64
  br label %hi_sdslen.exit27

84:                                               ; preds = %67
  %85 = getelementptr inbounds i8, ptr %68, i64 -9
  %86 = load i32, ptr %85, align 1, !tbaa !27
  %87 = zext i32 %86 to i64
  br label %hi_sdslen.exit27

88:                                               ; preds = %67
  %89 = getelementptr inbounds i8, ptr %68, i64 -17
  %90 = load i64, ptr %89, align 1, !tbaa !28
  br label %hi_sdslen.exit27

hi_sdslen.exit27:                                 ; preds = %67, %73, %76, %80, %84, %88
  %.0.i26 = phi i64 [ %90, %88 ], [ %87, %84 ], [ %83, %80 ], [ %79, %76 ], [ %75, %73 ], [ 0, %67 ]
  %91 = icmp eq i64 %.0.i26, 0
  %92 = zext i1 %91 to i32
  store i32 %92, ptr %1, align 4, !tbaa !27
  br label %96

93:                                               ; preds = %62, %hi_sdslen.exit25.thread
  store i32 5, ptr %3, align 8, !tbaa !32
  %94 = getelementptr inbounds nuw i8, ptr %0, i64 12
  tail call void @llvm.memcpy.p0.p0.i64(ptr noundef nonnull align 4 dereferenceable(13) %94, ptr noundef nonnull align 1 dereferenceable(13) @.str.7, i64 13, i1 false)
  %95 = getelementptr inbounds nuw i8, ptr %0, i64 25
  store i8 0, ptr %95, align 1, !tbaa !22
  br label %96

96:                                               ; preds = %30, %hi_sdslen.exit.thread, %hi_sdslen.exit27, %2, %93
  %.018 = phi i32 [ -1, %93 ], [ -1, %2 ], [ 0, %hi_sdslen.exit27 ], [ 0, %hi_sdslen.exit.thread ], [ -1, %30 ]
  ret i32 %.018
}